target datalayout = "e-m:e-p270:32:32-p271:32:32-p272:64:64-i64:64-i128:128-f80:128-n8:16:32:64-S128"
target triple = "x86_64-pc-linux-gnu"

%"struct.faiss::Index" = type <{ ptr, i32, [4 x i8], i64, i8, i8, [2 x i8], i32, float, [4 x i8] }>
%"struct.faiss::NegativeDistanceComputer" = type { %"struct.faiss::DistanceComputer", ptr }
%"struct.faiss::DistanceComputer" = type { ptr }

; Function Attrs: inlinehint mustprogress nounwind uwtable
define linkonce_odr void @_ZN5faiss16DistanceComputerC2Ev(ptr noundef nonnull align 8 dereferenceable(8) %0) unnamed_addr #4 comdat align 2 {
  %2 = alloca ptr, align 8
  store ptr %0, ptr %2, align 8, !tbaa !21
  %3 = load ptr, ptr %2, align 8
  store ptr getelementptr inbounds inrange(-16, 48) ({ [8 x ptr] }, ptr @_ZTVN5faiss16DistanceComputerE, i32 0, i32 0, i32 2), ptr %3, align 8, !tbaa !16
  ret void
}

; Function Attrs: mustprogress nounwind uwtable
define linkonce_odr void @_ZN5faiss24NegativeDistanceComputerC2EPNS_16DistanceComputerE(ptr noundef nonnull align 8 dereferenceable(16) %0, ptr noundef %1) unnamed_addr #1 comdat align 2 {
  %3 = alloca ptr, align 8
  %4 = alloca ptr, align 8
  store ptr %0, ptr %3, align 8, !tbaa !19
  store ptr %1, ptr %4, align 8, !tbaa !21
  %5 = load ptr, ptr %3, align 8
  call void @_ZN5faiss16DistanceComputerC2Ev(ptr noundef nonnull align 8 dereferenceable(8) %5) #20
  store ptr getelementptr inbounds inrange(-16, 48) ({ [8 x ptr] }, ptr @_ZTVN5faiss24NegativeDistanceComputerE, i32 0, i32 0, i32 2), ptr %5, align 8, !tbaa !16
  %6 = getelementptr inbounds nuw %"struct.faiss::NegativeDistanceComputer", ptr %5, i32 0, i32 1
  %7 = load ptr, ptr %4, align 8, !tbaa !21
  store ptr %7, ptr %6, align 8, !tbaa !23
  ret void
}

; Function Attrs: mustprogress nounwind uwtable
define linkonce_odr noundef zeroext i1 @_ZN5faiss20is_similarity_metricENS_10MetricTypeE(i32 noundef %0) #1 comdat {
  %2 = alloca i32, align 4
  store i32 %0, ptr %2, align 4, !tbaa !18
  %3 = load i32, ptr %2, align 4, !tbaa !18
  %4 = icmp eq i32 %3, 0
  br i1 %4, label %8, label %5

5:                                                ; preds = %1
  %6 = load i32, ptr %2, align 4, !tbaa !18
  %7 = icmp eq i32 %6, 23
  br label %8

8:                                                ; preds = %5, %1
  %9 = phi i1 [ true, %1 ], [ %7, %5 ]
  ret i1 %9
}

; Function Attrs: mustprogress uwtable
define noundef ptr @_ZN5faiss3nsg25storage_distance_computerEPKNS_5IndexE(ptr noundef %0) #0 personality ptr @__gxx_personality_v0 {
  %2 = alloca ptr, align 8
  %3 = alloca ptr, align 8
  %4 = alloca ptr, align 8
  %5 = alloca i32, align 4
  store ptr %0, ptr %3, align 8, !tbaa !4
  %6 = load ptr, ptr %3, align 8, !tbaa !4
  %7 = getelementptr inbounds nuw %"struct.faiss::Index", ptr %6, i32 0, i32 7
  %8 = load i32, ptr %7, align 4, !tbaa !9
  %9 = call noundef zeroext i1 @_ZN5faiss20is_similarity_metricENS_10MetricTypeE(i32 noundef %8)
  br i1 %9, label %10, label %23

10:                                               ; preds = %1
  %11 = call noalias noundef nonnull ptr @_Znwm(i64 noundef 16) #22
  %12 = load ptr, ptr %3, align 8, !tbaa !4
  %13 = load ptr, ptr %12, align 8, !tbaa !16
  %14 = getelementptr inbounds ptr, ptr %13, i64 16
  %15 = load ptr, ptr %14, align 8
  %16 = invoke noundef ptr %15(ptr noundef nonnull align 8 dereferenceable(36) %12)
          to label %17 unwind label %19

17:                                               ; preds = %10
  invoke void @_ZN5faiss24NegativeDistanceComputerC2EPNS_16DistanceComputerE(ptr noundef nonnull align 8 dereferenceable(16) %11, ptr noundef %16)
          to label %18 unwind label %19

18:                                               ; preds = %17
  store ptr %11, ptr %2, align 8
  br label %29

19:                                               ; preds = %17, %10
  %20 = landingpad { ptr, i32 }
          cleanup
  %21 = extractvalue { ptr, i32 } %20, 0
  store ptr %21, ptr %4, align 8
  %22 = extractvalue { ptr, i32 } %20, 1
  store i32 %22, ptr %5, align 4
  call void @_ZdlPvm(ptr noundef %11, i64 noundef 16) #23
  br label %31

23:                                               ; preds = %1
  %24 = load ptr, ptr %3, align 8, !tbaa !4
  %25 = load ptr, ptr %24, align 8, !tbaa !16
  %26 = getelementptr inbounds ptr, ptr %25, i64 16
  %27 = load ptr, ptr %26, align 8
  %28 = call noundef ptr %27(ptr noundef nonnull align 8 dereferenceable(36) %24)
  store ptr %28, ptr %2, align 8
  br label %29

29:                                               ; preds = %23, %18
  %30 = load ptr, ptr %2, align 8
  ret ptr %30

31:                                               ; preds = %19
  %32 = load ptr, ptr %4, align 8
  %33 = load i32, ptr %5, align 4
  %34 = insertvalue { ptr, i32 } poison, ptr %32, 0
  %35 = insertvalue { ptr, i32 } %34, i32 %33, 1
  resume { ptr, i32 } %35
}