; Function Attrs: mustprogress uwtable
define noundef ptr @_ZN5faiss3nsg25storage_distance_computerEPKNS_5IndexE(ptr noundef %0) local_unnamed_addr #0 personality ptr @__gxx_personality_v0 {
  %2 = getelementptr inbounds nuw i8, ptr %0, i64 28
  %3 = load i32, ptr %2, align 4, !tbaa !4
  switch i32 %3, label %14 [
    i32 23, label %4
    i32 0, label %4
  ]

4:                                                ; preds = %1, %1
  %5 = tail call noalias noundef nonnull dereferenceable(16) ptr @_Znwm(i64 noundef 16) #23
  %6 = load ptr, ptr %0, align 8, !tbaa !13
  %7 = getelementptr inbounds nuw i8, ptr %6, i64 128
  %8 = load ptr, ptr %7, align 8
  %9 = invoke noundef ptr %8(ptr noundef nonnull align 8 dereferenceable(36) %0)
          to label %10 unwind label %12

10:                                               ; preds = %4
  store ptr getelementptr inbounds nuw inrange(-16, 48) (i8, ptr @_ZTVN5faiss24NegativeDistanceComputerE, i64 16), ptr %5, align 8, !tbaa !13
  %11 = getelementptr inbounds nuw i8, ptr %5, i64 8
  store ptr %9, ptr %11, align 8, !tbaa !15
  br label %19

12:                                               ; preds = %4
  %13 = landingpad { ptr, i32 }
          cleanup
  tail call void @_ZdlPvm(ptr noundef nonnull %5, i64 noundef 16) #24
  resume { ptr, i32 } %13

14:                                               ; preds = %1
  %15 = load ptr, ptr %0, align 8, !tbaa !13
  %16 = getelementptr inbounds nuw i8, ptr %15, i64 128
  %17 = load ptr, ptr %16, align 8
  %18 = tail call noundef ptr %17(ptr noundef nonnull align 8 dereferenceable(36) %0)
  br label %19

19:                                               ; preds = %14, %10
  %.0 = phi ptr [ %5, %10 ], [ %18, %14 ]
  ret ptr %.0
}